; Function Attrs: nounwind uwtable
define void @pmix_pgpu_base_deregister_nspace(ptr noundef %0) local_unnamed_addr #0 {
  %2 = load i32, ptr getelementptr inbounds nuw (i8, ptr @pmix_pgpu_base_framework, i64 76), align 4, !tbaa !3
  %or.cond = icmp ult i32 %2, 64
  br i1 %or.cond, label %3, label %9

3:                                                ; preds = %1
  %4 = zext nneg i32 %2 to i64
  %5 = getelementptr inbounds nuw [0 x %struct.pmix_output_desc_t], ptr @pmix_output_info, i64 0, i64 %4, i32 2
  %6 = load i32, ptr %5, align 4, !tbaa !18
  %7 = icmp sgt i32 %6, 1
  br i1 %7, label %8, label %9

8:                                                ; preds = %3
  tail call void (i32, ptr, ...) @pmix_output(i32 noundef %2, ptr noundef nonnull @.str.7) #11
  br label %9

9:                                                ; preds = %8, %3, %1
  %10 = icmp eq ptr %0, null
  %.02131 = load ptr, ptr getelementptr inbounds nuw (i8, ptr @pmix_pgpu_globals, i64 512), align 8
  %.not32 = icmp eq ptr %.02131, getelementptr inbounds nuw (i8, ptr @pmix_pgpu_globals, i64 392)
  %or.cond38 = select i1 %10, i1 true, i1 %.not32
  br i1 %or.cond38, label %.thread, label %.lr.ph

.lr.ph:                                           ; preds = %9, %16
  %.02133 = phi ptr [ %.021, %16 ], [ %.02131, %9 ]
  %11 = getelementptr inbounds nuw i8, ptr %.02133, i64 144
  %12 = load ptr, ptr %11, align 8, !tbaa !72
  %13 = getelementptr inbounds nuw i8, ptr %12, i64 144
  %14 = load ptr, ptr %13, align 8, !tbaa !23
  %15 = tail call zeroext i1 @PMIx_Check_nspace(ptr noundef %14, ptr noundef nonnull %0) #11
  br i1 %15, label %18, label %16

16:                                               ; preds = %.lr.ph
  %17 = getelementptr inbounds nuw i8, ptr %.02133, i64 120
  %.021 = load ptr, ptr %17, align 8, !tbaa !22
  %.not = icmp eq ptr %.021, getelementptr inbounds nuw (i8, ptr @pmix_pgpu_globals, i64 392)
  br i1 %.not, label %.thread, label %.lr.ph, !llvm.loop !88

18:                                               ; preds = %.lr.ph
  %19 = getelementptr inbounds nuw i8, ptr %.02133, i64 144
  %20 = getelementptr inbounds nuw i8, ptr %.02133, i64 120
  %21 = load ptr, ptr %20, align 8, !tbaa !22
  %22 = getelementptr inbounds nuw i8, ptr %.02133, i64 128
  %23 = load ptr, ptr %22, align 8, !tbaa !40
  %24 = getelementptr inbounds nuw i8, ptr %23, i64 120
  store volatile ptr %21, ptr %24, align 8, !tbaa !22
  %25 = getelementptr inbounds nuw i8, ptr %21, i64 128
  store volatile ptr %23, ptr %25, align 8, !tbaa !40
  %26 = load volatile i64, ptr getelementptr inbounds nuw (i8, ptr @pmix_pgpu_globals, i64 536), align 8, !tbaa !21
  %27 = add i64 %26, -1
  store volatile i64 %27, ptr getelementptr inbounds nuw (i8, ptr @pmix_pgpu_globals, i64 536), align 8, !tbaa !21
  %.034 = load ptr, ptr getelementptr inbounds nuw (i8, ptr @pmix_pgpu_globals, i64 240), align 8, !tbaa !22
  %.not2635 = icmp eq ptr %.034, getelementptr inbounds nuw (i8, ptr @pmix_pgpu_globals, i64 120)
  br i1 %.not2635, label %._crit_edge, label %.lr.ph37

.lr.ph37:                                         ; preds = %18, %34
  %.036 = phi ptr [ %.0, %34 ], [ %.034, %18 ]
  %28 = getelementptr inbounds nuw i8, ptr %.036, i64 152
  %29 = load ptr, ptr %28, align 8, !tbaa !66
  %30 = getelementptr inbounds nuw i8, ptr %29, i64 64
  %31 = load ptr, ptr %30, align 8, !tbaa !89
  %.not28 = icmp eq ptr %31, null
  br i1 %.not28, label %34, label %32

32:                                               ; preds = %.lr.ph37
  %33 = load ptr, ptr %19, align 8, !tbaa !72
  tail call void %31(ptr noundef %33) #11
  br label %34

34:                                               ; preds = %.lr.ph37, %32
  %35 = getelementptr inbounds nuw i8, ptr %.036, i64 120
  %.0 = load ptr, ptr %35, align 8, !tbaa !22
  %.not26 = icmp eq ptr %.0, getelementptr inbounds nuw (i8, ptr @pmix_pgpu_globals, i64 120)
  br i1 %.not26, label %._crit_edge, label %.lr.ph37, !llvm.loop !90

._crit_edge:                                      ; preds = %34, %18
  %36 = tail call i32 @pthread_mutex_lock(ptr noundef nonnull %.02133) #11
  %37 = icmp eq i32 %36, 35
  br i1 %37, label %38, label %pmix_obj_update.exit

38:                                               ; preds = %._crit_edge
  %39 = tail call ptr @__errno_location() #14
  store i32 35, ptr %39, align 4, !tbaa !33
  tail call void @perror(ptr noundef nonnull @.str.10) #15
  tail call void @abort() #16
  unreachable

pmix_obj_update.exit:                             ; preds = %._crit_edge
  %40 = getelementptr inbounds nuw i8, ptr %.02133, i64 48
  %41 = load i32, ptr %40, align 8, !tbaa !36
  %42 = add nsw i32 %41, -1
  store i32 %42, ptr %40, align 8, !tbaa !36
  %43 = tail call i32 @pthread_mutex_unlock(ptr noundef nonnull %.02133) #11
  %44 = icmp eq i32 %42, 0
  br i1 %44, label %45, label %.thread

45:                                               ; preds = %pmix_obj_update.exit
  %46 = getelementptr inbounds nuw i8, ptr %.02133, i64 40
  %47 = load ptr, ptr %46, align 8, !tbaa !35
  %48 = getelementptr inbounds nuw i8, ptr %47, i64 48
  %49 = load ptr, ptr %48, align 8, !tbaa !91
  %50 = load ptr, ptr %49, align 8, !tbaa !38
  %.not6.i = icmp eq ptr %50, null
  br i1 %.not6.i, label %pmix_obj_run_destructors.exit, label %.lr.ph.i

.lr.ph.i:                                         ; preds = %45, %.lr.ph.i
  %51 = phi ptr [ %53, %.lr.ph.i ], [ %50, %45 ]
  %.07.i = phi ptr [ %52, %.lr.ph.i ], [ %49, %45 ]
  tail call void %51(ptr noundef nonnull %.02133) #11
  %52 = getelementptr inbounds nuw i8, ptr %.07.i, i64 8
  %53 = load ptr, ptr %52, align 8, !tbaa !38
  %.not.i = icmp eq ptr %53, null
  br i1 %.not.i, label %pmix_obj_run_destructors.exit, label %.lr.ph.i, !llvm.loop !92

pmix_obj_run_destructors.exit:                    ; preds = %.lr.ph.i, %45
  %54 = getelementptr inbounds nuw i8, ptr %.02133, i64 96
  %55 = load ptr, ptr %54, align 8, !tbaa !93
  %.not27 = icmp eq ptr %55, null
  br i1 %.not27, label %58, label %56

56:                                               ; preds = %pmix_obj_run_destructors.exit
  %57 = getelementptr inbounds nuw i8, ptr %.02133, i64 56
  tail call void %55(ptr noundef nonnull %57, ptr noundef nonnull %.02133) #11
  br label %.thread

58:                                               ; preds = %pmix_obj_run_destructors.exit
  tail call void @free(ptr noundef nonnull %.02133) #11
  br label %.thread

.thread:                                          ; preds = %16, %pmix_obj_update.exit, %58, %56, %9
  ret void
}